; Function Attrs: mustprogress nofree norecurse nosync nounwind willreturn memory(readwrite, inaccessiblemem: none) uwtable
define dso_local void @_ZN4node11UDPListenerD2Ev(ptr nocapture noundef nonnull align 8 dereferenceable(16) %this) unnamed_addr #5 align 2 {
entry:
  store ptr getelementptr inbounds ({ [9 x ptr] }, ptr @_ZTVN4node11UDPListenerE, i64 0, i32 0, i64 2), ptr %this, align 8
  %wrap_ = getelementptr inbounds i8, ptr %this, i64 8
  %0 = load ptr, ptr %wrap_, align 8
  %cmp.not = icmp eq ptr %0, null
  br i1 %cmp.not, label %if.end, label %if.then

if.then:                                          ; preds = %entry
  %listener_.i = getelementptr inbounds i8, ptr %0, i64 8
  %1 = load ptr, ptr %listener_.i, align 8
  %cmp.not.i = icmp eq ptr %1, null
  br i1 %cmp.not.i, label %_ZN4node11UDPWrapBase12set_listenerEPNS_11UDPListenerE.exit, label %if.then.i

if.then.i:                                        ; preds = %if.then
  %wrap_.i = getelementptr inbounds i8, ptr %1, i64 8
  store ptr null, ptr %wrap_.i, align 8
  br label %_ZN4node11UDPWrapBase12set_listenerEPNS_11UDPListenerE.exit

_ZN4node11UDPWrapBase12set_listenerEPNS_11UDPListenerE.exit: ; preds = %if.then, %if.then.i
  store ptr null, ptr %listener_.i, align 8
  br label %if.end

if.end:                                           ; preds = %_ZN4node11UDPWrapBase12set_listenerEPNS_11UDPListenerE.exit, %entry
  ret void
}